target datalayout = "e-m:e-p270:32:32-p271:32:32-p272:64:64-i64:64-i128:128-f80:128-n8:16:32:64-S128"
target triple = "x86_64-pc-linux-gnu"

%class.ObjectSampler = type { ptr, ptr, i64, i64, i64 }
%class.RefCountHandle = type { ptr }
%class.ObjectSample = type <{ ptr, ptr, %class.RefCountHandle, %class.RefCountHandle, %class.RefCountHandle, %class.WeakHandle, %class.TimeInstant.2, i64, i64, i64, i64, i64, i64, i32, i8, [3 x i8] }>
%class.WeakHandle = type { ptr }
%class.TimeInstant.2 = type { %class.CompositeCounterRepresentation }
%class.CompositeCounterRepresentation = type { %class.Representation.3 }
%class.Representation.3 = type { %class.PairRep }
%class.PairRep = type { i64, i64 }

; Function Attrs: mustprogress nounwind uwtable
define linkonce_odr hidden void @_ZN12ObjectSample8add_spanEm(ptr noundef nonnull align 8 dereferenceable(117) %0, i64 noundef %1) #1 comdat align 2 {
  %3 = alloca ptr, align 8
  %4 = alloca i64, align 8
  store ptr %0, ptr %3, align 8
  store i64 %1, ptr %4, align 8
  %5 = load ptr, ptr %3, align 8
  %6 = load i64, ptr %4, align 8
  %7 = getelementptr inbounds %class.ObjectSample, ptr %5, i32 0, i32 10
  %8 = load i64, ptr %7, align 8
  %9 = add i64 %8, %6
  store i64 %9, ptr %7, align 8
  ret void
}

; Function Attrs: mustprogress nounwind uwtable
define linkonce_odr hidden noundef i64 @_ZNK12ObjectSample4spanEv(ptr noundef nonnull align 8 dereferenceable(117) %0) #1 comdat align 2 {
  %2 = alloca ptr, align 8
  store ptr %0, ptr %2, align 8
  %3 = load ptr, ptr %2, align 8
  %4 = getelementptr inbounds %class.ObjectSample, ptr %3, i32 0, i32 10
  %5 = load i64, ptr %4, align 8
  ret i64 %5
}

; Function Attrs: mustprogress nounwind uwtable
define linkonce_odr hidden noundef ptr @_ZNK12ObjectSample4prevEv(ptr noundef nonnull align 8 dereferenceable(117) %0) #1 comdat align 2 {
  %2 = alloca ptr, align 8
  store ptr %0, ptr %2, align 8
  %3 = load ptr, ptr %2, align 8
  %4 = getelementptr inbounds %class.ObjectSample, ptr %3, i32 0, i32 1
  %5 = load ptr, ptr %4, align 8
  ret ptr %5
}

; Function Attrs: mustprogress nounwind uwtable
define hidden void @_ZN13ObjectSampler11remove_deadEP12ObjectSample(ptr noundef nonnull align 8 dereferenceable(40) %0, ptr noundef %1) #1 align 2 {
  %3 = alloca ptr, align 8
  %4 = alloca ptr, align 8
  %5 = alloca ptr, align 8
  store ptr %0, ptr %3, align 8
  store ptr %1, ptr %4, align 8
  %6 = load ptr, ptr %3, align 8
  %7 = load ptr, ptr %4, align 8
  call void @_ZN12ObjectSample7releaseEv(ptr noundef nonnull align 8 dereferenceable(117) %7)
  %8 = load ptr, ptr %4, align 8
  %9 = call noundef ptr @_ZNK12ObjectSample4prevEv(ptr noundef nonnull align 8 dereferenceable(117) %8)
  store ptr %9, ptr %5, align 8
  %10 = load ptr, ptr %5, align 8
  %11 = icmp ne ptr %10, null
  br i1 %11, label %12, label %22

12:                                               ; preds = %2
  %13 = getelementptr inbounds %class.ObjectSampler, ptr %6, i32 0, i32 0
  %14 = load ptr, ptr %13, align 8
  %15 = load ptr, ptr %5, align 8
  call void @_ZN19SamplePriorityQueue6removeEP12ObjectSample(ptr noundef nonnull align 8 dereferenceable(32) %14, ptr noundef %15)
  %16 = load ptr, ptr %5, align 8
  %17 = load ptr, ptr %4, align 8
  %18 = call noundef i64 @_ZNK12ObjectSample4spanEv(ptr noundef nonnull align 8 dereferenceable(117) %17)
  call void @_ZN12ObjectSample8add_spanEm(ptr noundef nonnull align 8 dereferenceable(117) %16, i64 noundef %18)
  %19 = getelementptr inbounds %class.ObjectSampler, ptr %6, i32 0, i32 0
  %20 = load ptr, ptr %19, align 8
  %21 = load ptr, ptr %5, align 8
  call void @_ZN19SamplePriorityQueue4pushEP12ObjectSample(ptr noundef nonnull align 8 dereferenceable(32) %20, ptr noundef %21)
  br label %22

22:                                               ; preds = %12, %2
  %23 = getelementptr inbounds %class.ObjectSampler, ptr %6, i32 0, i32 0
  %24 = load ptr, ptr %23, align 8
  %25 = load ptr, ptr %4, align 8
  call void @_ZN19SamplePriorityQueue6removeEP12ObjectSample(ptr noundef nonnull align 8 dereferenceable(32) %24, ptr noundef %25)
  %26 = getelementptr inbounds %class.ObjectSampler, ptr %6, i32 0, i32 1
  %27 = load ptr, ptr %26, align 8
  %28 = load ptr, ptr %4, align 8
  call void @_ZN10SampleList7releaseEP12ObjectSample(ptr noundef nonnull align 8 dereferenceable(80) %27, ptr noundef %28)
  ret void
}