; Function Attrs: mustprogress nounwind uwtable
define hidden void @_ZN13ObjectSampler11remove_deadEP12ObjectSample(ptr nocapture noundef nonnull readonly align 8 dereferenceable(40) %0, ptr noundef nonnull %1) local_unnamed_addr #0 align 2 {
  tail call void @_ZN12ObjectSample7releaseEv(ptr noundef nonnull align 8 dereferenceable(117) %1) #11
  %3 = getelementptr inbounds i8, ptr %1, i64 8
  %4 = load ptr, ptr %3, align 8
  %.not = icmp eq ptr %4, null
  br i1 %.not, label %13, label %5

5:                                                ; preds = %2
  %6 = load ptr, ptr %0, align 8
  tail call void @_ZN19SamplePriorityQueue6removeEP12ObjectSample(ptr noundef nonnull align 8 dereferenceable(32) %6, ptr noundef nonnull %4) #11
  %7 = getelementptr inbounds i8, ptr %1, i64 88
  %8 = load i64, ptr %7, align 8
  %9 = getelementptr inbounds i8, ptr %4, i64 88
  %10 = load i64, ptr %9, align 8
  %11 = add i64 %10, %8
  store i64 %11, ptr %9, align 8
  %12 = load ptr, ptr %0, align 8
  tail call void @_ZN19SamplePriorityQueue4pushEP12ObjectSample(ptr noundef nonnull align 8 dereferenceable(32) %12, ptr noundef nonnull %4) #11
  br label %13

13:                                               ; preds = %5, %2
  %14 = load ptr, ptr %0, align 8
  tail call void @_ZN19SamplePriorityQueue6removeEP12ObjectSample(ptr noundef nonnull align 8 dereferenceable(32) %14, ptr noundef nonnull %1) #11
  %15 = getelementptr inbounds i8, ptr %0, i64 8
  %16 = load ptr, ptr %15, align 8
  tail call void @_ZN10SampleList7releaseEP12ObjectSample(ptr noundef nonnull align 8 dereferenceable(80) %16, ptr noundef nonnull %1) #11
  ret void
}